; Function Attrs: nounwind uwtable
define internal void @xmlparse_dealloc(ptr noundef %0) #0 {
  tail call void @PyObject_GC_UnTrack(ptr noundef %0) #8
  %2 = load ptr, ptr @handler_info, align 16, !tbaa !40
  %.not15.i.i = icmp eq ptr %2, null
  br i1 %.not15.i.i, label %clear_handlers.exit.i, label %.lr.ph.i.i

.lr.ph.i.i:                                       ; preds = %1
  %3 = getelementptr inbounds nuw i8, ptr %0, i64 72
  %4 = getelementptr inbounds nuw i8, ptr %0, i64 16
  br label %.lr.ph.split.us.i.i

.lr.ph.split.us.i.i:                              ; preds = %Py_DECREF.exit.us.i.i, %.lr.ph.i.i
  %5 = phi ptr [ %21, %Py_DECREF.exit.us.i.i ], [ @handler_info, %.lr.ph.i.i ]
  %6 = phi i64 [ %20, %Py_DECREF.exit.us.i.i ], [ 0, %.lr.ph.i.i ]
  %.016.us.i.i = phi i32 [ %19, %Py_DECREF.exit.us.i.i ], [ 0, %.lr.ph.i.i ]
  %7 = load ptr, ptr %3, align 8, !tbaa !36
  %8 = getelementptr ptr, ptr %7, i64 %6
  %9 = load ptr, ptr %8, align 8, !tbaa !14
  %.not14.us.i.i = icmp eq ptr %9, null
  br i1 %.not14.us.i.i, label %Py_DECREF.exit.us.i.i, label %10

10:                                               ; preds = %.lr.ph.split.us.i.i
  store ptr null, ptr %8, align 8, !tbaa !14
  %11 = load i32, ptr %9, align 8, !tbaa !13
  %.not.i.us.i.i = icmp sgt i32 %11, -1
  br i1 %.not.i.us.i.i, label %12, label %Py_DECREF.exit.us.i.i

12:                                               ; preds = %10
  %13 = add nsw i32 %11, -1
  store i32 %13, ptr %9, align 8, !tbaa !13
  %14 = icmp eq i32 %13, 0
  br i1 %14, label %15, label %Py_DECREF.exit.us.i.i

15:                                               ; preds = %12
  tail call void @_Py_Dealloc(ptr noundef nonnull %9) #8
  br label %Py_DECREF.exit.us.i.i

Py_DECREF.exit.us.i.i:                            ; preds = %15, %12, %10, %.lr.ph.split.us.i.i
  %16 = getelementptr inbounds nuw i8, ptr %5, i64 8
  %17 = load ptr, ptr %16, align 8, !tbaa !56
  %18 = load ptr, ptr %4, align 8, !tbaa !39
  tail call void %17(ptr noundef %18, ptr noundef null) #8
  %19 = add i32 %.016.us.i.i, 1
  %20 = sext i32 %19 to i64
  %21 = getelementptr [64 x %struct.HandlerInfo], ptr @handler_info, i64 0, i64 %20
  %22 = load ptr, ptr %21, align 16, !tbaa !40
  %.not.us.i.i = icmp eq ptr %22, null
  br i1 %.not.us.i.i, label %clear_handlers.exit.i, label %.lr.ph.split.us.i.i, !llvm.loop !45

clear_handlers.exit.i:                            ; preds = %Py_DECREF.exit.us.i.i, %1
  %23 = getelementptr inbounds nuw i8, ptr %0, i64 64
  %24 = load ptr, ptr %23, align 8, !tbaa !14
  %.not.i18 = icmp eq ptr %24, null
  br i1 %.not.i18, label %xmlparse_clear.exit, label %25

25:                                               ; preds = %clear_handlers.exit.i
  store ptr null, ptr %23, align 8, !tbaa !14
  %26 = load i32, ptr %24, align 8, !tbaa !13
  %.not.i.i = icmp sgt i32 %26, -1
  br i1 %.not.i.i, label %27, label %xmlparse_clear.exit

27:                                               ; preds = %25
  %28 = add nsw i32 %26, -1
  store i32 %28, ptr %24, align 8, !tbaa !13
  %29 = icmp eq i32 %28, 0
  br i1 %29, label %30, label %xmlparse_clear.exit

30:                                               ; preds = %27
  tail call void @_Py_Dealloc(ptr noundef nonnull %24) #8
  br label %xmlparse_clear.exit

xmlparse_clear.exit:                              ; preds = %clear_handlers.exit.i, %25, %27, %30
  %31 = getelementptr inbounds nuw i8, ptr %0, i64 16
  %32 = load ptr, ptr %31, align 8, !tbaa !39
  %.not = icmp eq ptr %32, null
  br i1 %.not, label %34, label %33

33:                                               ; preds = %xmlparse_clear.exit
  tail call void @PyExpat_XML_ParserFree(ptr noundef nonnull %32) #8
  br label %34

34:                                               ; preds = %33, %xmlparse_clear.exit
  store ptr null, ptr %31, align 8, !tbaa !39
  %35 = getelementptr inbounds nuw i8, ptr %0, i64 72
  %36 = load ptr, ptr %35, align 8, !tbaa !36
  %.not16 = icmp eq ptr %36, null
  br i1 %.not16, label %38, label %37

37:                                               ; preds = %34
  tail call void @PyMem_Free(ptr noundef nonnull %36) #8
  store ptr null, ptr %35, align 8, !tbaa !36
  br label %38

38:                                               ; preds = %37, %34
  %39 = getelementptr inbounds nuw i8, ptr %0, i64 40
  %40 = load ptr, ptr %39, align 8, !tbaa !29
  %.not17 = icmp eq ptr %40, null
  br i1 %.not17, label %42, label %41

41:                                               ; preds = %38
  tail call void @PyMem_Free(ptr noundef nonnull %40) #8
  store ptr null, ptr %39, align 8, !tbaa !29
  br label %42

42:                                               ; preds = %41, %38
  %43 = getelementptr i8, ptr %0, i64 8
  %.val = load ptr, ptr %43, align 8, !tbaa !19
  tail call void @PyObject_GC_Del(ptr noundef nonnull %0) #8
  %44 = load i32, ptr %.val, align 8, !tbaa !13
  %.not.i = icmp sgt i32 %44, -1
  br i1 %.not.i, label %45, label %Py_DECREF.exit

45:                                               ; preds = %42
  %46 = add nsw i32 %44, -1
  store i32 %46, ptr %.val, align 8, !tbaa !13
  %47 = icmp eq i32 %46, 0
  br i1 %47, label %48, label %Py_DECREF.exit

48:                                               ; preds = %45
  tail call void @_Py_Dealloc(ptr noundef nonnull %.val) #8
  br label %Py_DECREF.exit

Py_DECREF.exit:                                   ; preds = %42, %45, %48
  ret void
}